target datalayout = "e-m:e-p270:32:32-p271:32:32-p272:64:64-i64:64-i128:128-f80:128-n8:16:32:64-S128"
target triple = "x86_64-pc-linux-gnu"

%struct.xl_btree_update = type { i16 }

@.str.26 = private unnamed_addr constant [11 x i8] c", deleted:\00", align 1
@.str.27 = private unnamed_addr constant [13 x i8] c", updated: [\00", align 1
@.str.28 = private unnamed_addr constant [32 x i8] c"{ off: %u, nptids: %u, ptids: [\00", align 1
@.str.29 = private unnamed_addr constant [3 x i8] c"%u\00", align 1
@.str.30 = private unnamed_addr constant [3 x i8] c", \00", align 1
@.str.31 = private unnamed_addr constant [4 x i8] c"] }\00", align 1

; Function Attrs: nounwind uwtable
define internal void @delvacuum_desc(ptr noundef %0, ptr noundef %1, i16 noundef zeroext %2, i16 noundef zeroext %3) #0 {
  %5 = alloca ptr, align 8
  %6 = alloca ptr, align 8
  %7 = alloca i16, align 2
  %8 = alloca i16, align 2
  %9 = alloca ptr, align 8
  %10 = alloca ptr, align 8
  %11 = alloca ptr, align 8
  %12 = alloca i32, align 4
  %13 = alloca i32, align 4
  %14 = alloca i16, align 2
  %15 = alloca i32, align 4
  %16 = alloca ptr, align 8
  store ptr %0, ptr %5, align 8
  store ptr %1, ptr %6, align 8
  store i16 %2, ptr %7, align 2
  store i16 %3, ptr %8, align 2
  call void @llvm.lifetime.start.p0(i64 8, ptr %9) #3
  call void @llvm.lifetime.start.p0(i64 8, ptr %10) #3
  call void @llvm.lifetime.start.p0(i64 8, ptr %11) #3
  %17 = load ptr, ptr %5, align 8
  call void @appendStringInfoString(ptr noundef %17, ptr noundef @.str.26)
  %18 = load ptr, ptr %6, align 8
  store ptr %18, ptr %9, align 8
  %19 = load ptr, ptr %5, align 8
  %20 = load ptr, ptr %9, align 8
  %21 = load i16, ptr %7, align 2
  %22 = zext i16 %21 to i32
  call void @array_desc(ptr noundef %19, ptr noundef %20, i64 noundef 2, i32 noundef %22, ptr noundef @offset_elem_desc, ptr noundef null)
  %23 = load ptr, ptr %5, align 8
  call void @appendStringInfoString(ptr noundef %23, ptr noundef @.str.27)
  %24 = load ptr, ptr %6, align 8
  %25 = load i16, ptr %7, align 2
  %26 = zext i16 %25 to i64
  %27 = mul i64 %26, 2
  %28 = getelementptr inbounds nuw i8, ptr %24, i64 %27
  store ptr %28, ptr %10, align 8
  %29 = load ptr, ptr %10, align 8
  %30 = load i16, ptr %8, align 2
  %31 = zext i16 %30 to i64
  %32 = mul i64 %31, 2
  %33 = getelementptr inbounds nuw i8, ptr %29, i64 %32
  store ptr %33, ptr %11, align 8
  call void @llvm.lifetime.start.p0(i64 4, ptr %12) #3
  store i32 0, ptr %12, align 4
  br label %34

34:                                               ; preds = %102, %4
  %35 = load i32, ptr %12, align 4
  %36 = load i16, ptr %8, align 2
  %37 = zext i16 %36 to i32
  %38 = icmp slt i32 %35, %37
  br i1 %38, label %40, label %39

39:                                               ; preds = %34
  store i32 2, ptr %13, align 4
  call void @llvm.lifetime.end.p0(i64 4, ptr %12) #3
  br label %105

40:                                               ; preds = %34
  call void @llvm.lifetime.start.p0(i64 2, ptr %14) #3
  %41 = load ptr, ptr %10, align 8
  %42 = load i32, ptr %12, align 4
  %43 = sext i32 %42 to i64
  %44 = getelementptr inbounds i16, ptr %41, i64 %43
  %45 = load i16, ptr %44, align 2
  store i16 %45, ptr %14, align 2
  %46 = load ptr, ptr %5, align 8
  %47 = load i16, ptr %14, align 2
  %48 = zext i16 %47 to i32
  %49 = load ptr, ptr %11, align 8
  %50 = getelementptr inbounds nuw %struct.xl_btree_update, ptr %49, i32 0, i32 0
  %51 = load i16, ptr %50, align 2
  %52 = zext i16 %51 to i32
  call void (ptr, ptr, ...) @appendStringInfo(ptr noundef %46, ptr noundef @.str.28, i32 noundef %48, i32 noundef %52)
  call void @llvm.lifetime.start.p0(i64 4, ptr %15) #3
  store i32 0, ptr %15, align 4
  br label %53

53:                                               ; preds = %81, %40
  %54 = load i32, ptr %15, align 4
  %55 = load ptr, ptr %11, align 8
  %56 = getelementptr inbounds nuw %struct.xl_btree_update, ptr %55, i32 0, i32 0
  %57 = load i16, ptr %56, align 2
  %58 = zext i16 %57 to i32
  %59 = icmp slt i32 %54, %58
  br i1 %59, label %61, label %60

60:                                               ; preds = %53
  store i32 5, ptr %13, align 4
  call void @llvm.lifetime.end.p0(i64 4, ptr %15) #3
  br label %84

61:                                               ; preds = %53
  call void @llvm.lifetime.start.p0(i64 8, ptr %16) #3
  %62 = load ptr, ptr %11, align 8
  %63 = getelementptr inbounds nuw i8, ptr %62, i64 2
  %64 = load i32, ptr %15, align 4
  %65 = sext i32 %64 to i64
  %66 = getelementptr inbounds i16, ptr %63, i64 %65
  store ptr %66, ptr %16, align 8
  %67 = load ptr, ptr %5, align 8
  %68 = load ptr, ptr %16, align 8
  %69 = load i16, ptr %68, align 2
  %70 = zext i16 %69 to i32
  call void (ptr, ptr, ...) @appendStringInfo(ptr noundef %67, ptr noundef @.str.29, i32 noundef %70)
  %71 = load i32, ptr %15, align 4
  %72 = load ptr, ptr %11, align 8
  %73 = getelementptr inbounds nuw %struct.xl_btree_update, ptr %72, i32 0, i32 0
  %74 = load i16, ptr %73, align 2
  %75 = zext i16 %74 to i32
  %76 = sub i32 %75, 1
  %77 = icmp slt i32 %71, %76
  br i1 %77, label %78, label %80

78:                                               ; preds = %61
  %79 = load ptr, ptr %5, align 8
  call void @appendStringInfoString(ptr noundef %79, ptr noundef @.str.30)
  br label %80

80:                                               ; preds = %78, %61
  call void @llvm.lifetime.end.p0(i64 8, ptr %16) #3
  br label %81

81:                                               ; preds = %80
  %82 = load i32, ptr %15, align 4
  %83 = add i32 %82, 1
  store i32 %83, ptr %15, align 4
  br label %53, !llvm.loop !6

84:                                               ; preds = %60
  %85 = load ptr, ptr %5, align 8
  call void @appendStringInfoString(ptr noundef %85, ptr noundef @.str.31)
  %86 = load i32, ptr %12, align 4
  %87 = load i16, ptr %8, align 2
  %88 = zext i16 %87 to i32
  %89 = sub i32 %88, 1
  %90 = icmp slt i32 %86, %89
  br i1 %90, label %91, label %93

91:                                               ; preds = %84
  %92 = load ptr, ptr %5, align 8
  call void @appendStringInfoString(ptr noundef %92, ptr noundef @.str.30)
  br label %93

93:                                               ; preds = %91, %84
  %94 = load ptr, ptr %11, align 8
  %95 = getelementptr inbounds nuw i8, ptr %94, i64 2
  %96 = load ptr, ptr %11, align 8
  %97 = getelementptr inbounds nuw %struct.xl_btree_update, ptr %96, i32 0, i32 0
  %98 = load i16, ptr %97, align 2
  %99 = zext i16 %98 to i64
  %100 = mul i64 %99, 2
  %101 = getelementptr inbounds nuw i8, ptr %95, i64 %100
  store ptr %101, ptr %11, align 8
  call void @llvm.lifetime.end.p0(i64 2, ptr %14) #3
  br label %102

102:                                              ; preds = %93
  %103 = load i32, ptr %12, align 4
  %104 = add i32 %103, 1
  store i32 %104, ptr %12, align 4
  br label %34, !llvm.loop !8

105:                                              ; preds = %39
  %106 = load ptr, ptr %5, align 8
  call void @appendStringInfoChar(ptr noundef %106, i8 noundef signext 93)
  call void @llvm.lifetime.end.p0(i64 8, ptr %11) #3
  call void @llvm.lifetime.end.p0(i64 8, ptr %10) #3
  call void @llvm.lifetime.end.p0(i64 8, ptr %9) #3
  ret void
}