; Function Attrs: nounwind uwtable
define internal fastcc void @delvacuum_desc(ptr noundef %0, ptr noundef %1, i16 noundef zeroext %2, i16 noundef zeroext %3) unnamed_addr #0 {
  tail call void @appendStringInfoString(ptr noundef %0, ptr noundef nonnull @.str.26) #3
  %5 = zext i16 %2 to i32
  tail call void @array_desc(ptr noundef %0, ptr noundef %1, i64 noundef 2, i32 noundef %5, ptr noundef nonnull @offset_elem_desc, ptr noundef null) #3
  tail call void @appendStringInfoString(ptr noundef %0, ptr noundef nonnull @.str.27) #3
  %6 = zext i16 %2 to i64
  %7 = shl nuw nsw i64 %6, 1
  %8 = getelementptr inbounds nuw i8, ptr %1, i64 %7
  %.not = icmp eq i16 %3, 0
  br i1 %.not, label %._crit_edge42, label %.lr.ph41

.lr.ph41:                                         ; preds = %4
  %9 = zext i16 %3 to i64
  %10 = zext i16 %3 to i64
  %11 = shl nuw nsw i64 %10, 1
  %12 = getelementptr inbounds nuw i8, ptr %8, i64 %11
  %13 = add nuw nsw i64 %9, 4294967295
  %14 = and i64 %13, 4294967295
  %wide.trip.count = zext i16 %3 to i64
  br label %15

._crit_edge42:                                    ; preds = %38, %4
  tail call void @appendStringInfoChar(ptr noundef %0, i8 noundef signext 93) #3
  ret void

15:                                               ; preds = %.lr.ph41, %38
  %indvars.iv45 = phi i64 [ 0, %.lr.ph41 ], [ %indvars.iv.next46, %38 ]
  %.039 = phi ptr [ %12, %.lr.ph41 ], [ %43, %38 ]
  %16 = getelementptr inbounds nuw i16, ptr %8, i64 %indvars.iv45
  %17 = load i16, ptr %16, align 2
  %18 = zext i16 %17 to i32
  %19 = load i16, ptr %.039, align 2
  %20 = zext i16 %19 to i32
  tail call void (ptr, ptr, ...) @appendStringInfo(ptr noundef %0, ptr noundef nonnull @.str.28, i32 noundef %18, i32 noundef %20) #3
  %21 = load i16, ptr %.039, align 2
  %.not43 = icmp eq i16 %21, 0
  br i1 %.not43, label %._crit_edge, label %.lr.ph

.lr.ph:                                           ; preds = %15
  %22 = getelementptr inbounds nuw i8, ptr %.039, i64 2
  br label %24

._crit_edge:                                      ; preds = %34, %15
  tail call void @appendStringInfoString(ptr noundef %0, ptr noundef nonnull @.str.31) #3
  %23 = icmp samesign ult i64 %indvars.iv45, %14
  br i1 %23, label %37, label %38

24:                                               ; preds = %.lr.ph, %34
  %indvars.iv = phi i64 [ 0, %.lr.ph ], [ %indvars.iv.next, %34 ]
  %25 = getelementptr inbounds nuw i16, ptr %22, i64 %indvars.iv
  %26 = load i16, ptr %25, align 2
  %27 = zext i16 %26 to i32
  tail call void (ptr, ptr, ...) @appendStringInfo(ptr noundef %0, ptr noundef nonnull @.str.29, i32 noundef %27) #3
  %28 = load i16, ptr %.039, align 2
  %29 = zext i16 %28 to i32
  %30 = add nsw i32 %29, -1
  %31 = sext i32 %30 to i64
  %32 = icmp slt i64 %indvars.iv, %31
  br i1 %32, label %33, label %34

33:                                               ; preds = %24
  tail call void @appendStringInfoString(ptr noundef %0, ptr noundef nonnull @.str.30) #3
  %.pre = load i16, ptr %.039, align 2
  %.pre48 = zext i16 %.pre to i32
  br label %34

34:                                               ; preds = %33, %24
  %.pre-phi = phi i32 [ %.pre48, %33 ], [ %29, %24 ]
  %indvars.iv.next = add nuw nsw i64 %indvars.iv, 1
  %35 = zext nneg i32 %.pre-phi to i64
  %36 = icmp samesign ult i64 %indvars.iv.next, %35
  br i1 %36, label %24, label %._crit_edge, !llvm.loop !6

37:                                               ; preds = %._crit_edge
  tail call void @appendStringInfoString(ptr noundef %0, ptr noundef nonnull @.str.30) #3
  br label %38

38:                                               ; preds = %37, %._crit_edge
  %39 = getelementptr inbounds nuw i8, ptr %.039, i64 2
  %40 = load i16, ptr %.039, align 2
  %41 = zext i16 %40 to i64
  %42 = shl nuw nsw i64 %41, 1
  %43 = getelementptr inbounds nuw i8, ptr %39, i64 %42
  %indvars.iv.next46 = add nuw nsw i64 %indvars.iv45, 1
  %exitcond.not = icmp eq i64 %indvars.iv.next46, %wide.trip.count
  br i1 %exitcond.not, label %._crit_edge42, label %15, !llvm.loop !8
}